; Function Attrs: mustprogress null_pointer_is_valid sspstrong uwtable
define void @_ZN15UrlLinkDelegateC2EP7QObject(ptr noundef align 8 dereferenceable_or_null(32) %0, ptr noundef %1) unnamed_addr #0 align 2 personality ptr @__gxx_personality_v0 {
  tail call void @_ZN19QStyledItemDelegateC2EP7QObject(ptr noundef align 8 dereferenceable_or_null(16) %0, ptr noundef %1)
  store ptr getelementptr inbounds nuw inrange(-16, 192) (i8, ptr @_ZTV15UrlLinkDelegate, i64 16), ptr %0, align 8
  %3 = getelementptr inbounds nuw i8, ptr %0, i64 16
  store i32 -1, ptr %3, align 8
  %4 = invoke noalias noundef dereferenceable_or_null(8) ptr @_Znwm(i64 noundef 8) #10
          to label %5 unwind label %8

5:                                                ; preds = %2
  invoke void @_ZN18QRegularExpressionC1Ev(ptr noundef align 8 dereferenceable_or_null(8) %4)
          to label %6 unwind label %10

6:                                                ; preds = %5
  %7 = getelementptr inbounds nuw i8, ptr %0, i64 24
  store ptr %4, ptr %7, align 8
  ret void

8:                                                ; preds = %2
  %9 = landingpad { ptr, i32 }
          cleanup
  br label %12

10:                                               ; preds = %5
  %11 = landingpad { ptr, i32 }
          cleanup
  tail call void @_ZdlPvm(ptr noundef %4, i64 noundef 8) #11
  br label %12

12:                                               ; preds = %10, %8
  %.pn = phi { ptr, i32 } [ %11, %10 ], [ %9, %8 ]
  tail call void @_ZN19QStyledItemDelegateD2Ev(ptr noundef align 8 dereferenceable_or_null(16) %0) #12
  resume { ptr, i32 } %.pn
}